target datalayout = "e-m:e-p270:32:32-p271:32:32-p272:64:64-i64:64-i128:128-f80:128-n8:16:32:64-S128"
target triple = "x86_64-pc-linux-gnu"

%struct.except_id_t = type { i64, i64 }
%struct._asn1_ctx_t = type { i32, i32, i8, ptr, ptr, ptr, ptr, ptr, %struct.anon.0, %struct.anon.3, %struct.anon.4, ptr }
%struct.anon.0 = type { i32, i8, i8, i8, ptr, ptr, i32, i32, ptr, ptr, ptr, %union.anon }
%union.anon = type { %struct.anon.1 }
%struct.anon.1 = type { ptr }
%struct.anon.3 = type { ptr, ptr, ptr }
%struct.anon.4 = type { i32, i8, ptr, i32, i32, ptr, ptr, ptr, %union.anon.5 }
%union.anon.5 = type { %struct.anon.6 }
%struct.anon.6 = type { ptr }
%struct.except_stacknode = type { ptr, i32, %union.anon.8 }
%union.anon.8 = type { ptr }
%struct.except_catch = type { ptr, i64, %struct.except_t, [1 x %struct.__jmp_buf_tag] }
%struct.except_t = type { %struct.except_id_t, ptr, ptr }
%struct.__jmp_buf_tag = type { [8 x i64], i32, %struct.__sigset_t }
%struct.__sigset_t = type { [16 x i64] }

@ett_s1ap_UE_HistoryInformationFromTheUE = internal global i32 0, align 4
@g_s1ap_dissect_container = internal global i8 1, align 1
@dissect_s1ap_UE_HistoryInformationFromTheUE.catch_spec = internal constant [1 x %struct.except_id_t] [%struct.except_id_t { i64 1, i64 0 }], align 16

; Function Attrs: null_pointer_is_valid sspstrong uwtable
define internal i32 @dissect_s1ap_UE_HistoryInformationFromTheUE(ptr noundef %0, i32 noundef %1, ptr noundef %2, ptr noundef %3, i32 noundef %4) #0 {
  %6 = alloca i32, align 4
  %7 = alloca ptr, align 8
  %8 = alloca i32, align 4
  %9 = alloca ptr, align 8
  %10 = alloca ptr, align 8
  %11 = alloca i32, align 4
  %12 = alloca ptr, align 8
  %13 = alloca ptr, align 8
  %14 = alloca i32, align 4
  %15 = alloca ptr, align 8
  %16 = alloca i32, align 4
  %17 = alloca %struct.except_stacknode, align 8
  %18 = alloca %struct.except_catch, align 8
  store ptr %0, ptr %7, align 8
  store i32 %1, ptr %8, align 4
  store ptr %2, ptr %9, align 8
  store ptr %3, ptr %10, align 8
  store i32 %4, ptr %11, align 4
  call void @llvm.lifetime.start.p0(i64 8, ptr %12) #8
  call void @llvm.lifetime.start.p0(i64 8, ptr %13) #8
  %19 = load ptr, ptr %7, align 8
  %20 = load i32, ptr %8, align 4
  %21 = load ptr, ptr %9, align 8
  %22 = load ptr, ptr %10, align 8
  %23 = load i32, ptr %11, align 4
  %24 = call i32 @dissect_per_octet_string(ptr noundef %19, i32 noundef %20, ptr noundef %21, ptr noundef %22, i32 noundef %23, i32 noundef -1, i32 noundef -1, i1 noundef zeroext false, ptr noundef %12)
  store i32 %24, ptr %8, align 4
  %25 = load ptr, ptr %12, align 8
  %26 = icmp ne ptr %25, null
  br i1 %26, label %29, label %27

27:                                               ; preds = %5
  %28 = load i32, ptr %8, align 4
  store i32 %28, ptr %6, align 4
  store i32 1, ptr %14, align 4
  br label %136

29:                                               ; preds = %5
  %30 = load i8, ptr @g_s1ap_dissect_container, align 1, !range !8, !noundef !9
  %31 = trunc i8 %30 to i1
  br i1 %31, label %32, label %134

32:                                               ; preds = %29
  %33 = load ptr, ptr %9, align 8
  %34 = getelementptr inbounds nuw %struct._asn1_ctx_t, ptr %33, i32 0, i32 4
  %35 = load ptr, ptr %34, align 8
  %36 = load i32, ptr @ett_s1ap_UE_HistoryInformationFromTheUE, align 4
  %37 = call ptr @proto_item_add_subtree(ptr noundef %35, i32 noundef %36)
  store ptr %37, ptr %13, align 8
  call void @llvm.lifetime.start.p0(i64 8, ptr %15) #8
  call void @llvm.lifetime.start.p0(i64 4, ptr %16) #8
  store volatile i32 0, ptr %16, align 4
  call void @llvm.lifetime.start.p0(i64 24, ptr %17) #8
  call void @llvm.lifetime.start.p0(i64 248, ptr %18) #8
  call void @except_setup_try(ptr noundef %17, ptr noundef %18, ptr noundef @dissect_s1ap_UE_HistoryInformationFromTheUE.catch_spec, i64 noundef 1)
  %38 = getelementptr inbounds nuw %struct.except_catch, ptr %18, i32 0, i32 3
  %39 = getelementptr inbounds [1 x %struct.__jmp_buf_tag], ptr %38, i64 0, i64 0
  %40 = call i32 @_setjmp(ptr noundef %39) #9
  %41 = icmp ne i32 %40, 0
  br i1 %41, label %42, label %44

42:                                               ; preds = %32
  %43 = getelementptr inbounds nuw %struct.except_catch, ptr %18, i32 0, i32 2
  store volatile ptr %43, ptr %15, align 8
  br label %45

44:                                               ; preds = %32
  store volatile ptr null, ptr %15, align 8
  br label %45

45:                                               ; preds = %44, %42
  %46 = load volatile i32, ptr %16, align 4
  %47 = and i32 %46, 1
  %48 = icmp ne i32 %47, 0
  br i1 %48, label %49, label %52

49:                                               ; preds = %45
  %50 = load volatile i32, ptr %16, align 4
  %51 = or i32 %50, 2
  store volatile i32 %51, ptr %16, align 4
  br label %52

52:                                               ; preds = %49, %45
  %53 = load volatile i32, ptr %16, align 4
  %54 = and i32 %53, -2
  store volatile i32 %54, ptr %16, align 4
  %55 = load volatile i32, ptr %16, align 4
  %56 = icmp eq i32 %55, 0
  br i1 %56, label %57, label %67

57:                                               ; preds = %52
  %58 = load volatile ptr, ptr %15, align 8
  %59 = icmp eq ptr %58, null
  br i1 %59, label %60, label %67

60:                                               ; preds = %57
  %61 = load ptr, ptr %12, align 8
  %62 = load ptr, ptr %9, align 8
  %63 = getelementptr inbounds nuw %struct._asn1_ctx_t, ptr %62, i32 0, i32 3
  %64 = load ptr, ptr %63, align 8
  %65 = load ptr, ptr %13, align 8
  %66 = call i32 @dissect_lte_rrc_VisitedCellInfoList_r12_PDU(ptr noundef %61, ptr noundef %64, ptr noundef %65, ptr noundef null)
  br label %67

67:                                               ; preds = %60, %57, %52
  %68 = load volatile i32, ptr %16, align 4
  %69 = icmp eq i32 %68, 0
  br i1 %69, label %70, label %120

70:                                               ; preds = %67
  %71 = load volatile ptr, ptr %15, align 8
  %72 = icmp ne ptr %71, null
  br i1 %72, label %73, label %120

73:                                               ; preds = %70
  %74 = load volatile ptr, ptr %15, align 8
  %75 = getelementptr inbounds nuw %struct.except_t, ptr %74, i32 0, i32 0
  %76 = getelementptr inbounds nuw %struct.except_id_t, ptr %75, i32 0, i32 1
  %77 = load volatile i64, ptr %76, align 8
  %78 = icmp eq i64 %77, 1
  br i1 %78, label %103, label %79

79:                                               ; preds = %73
  %80 = load volatile ptr, ptr %15, align 8
  %81 = getelementptr inbounds nuw %struct.except_t, ptr %80, i32 0, i32 0
  %82 = getelementptr inbounds nuw %struct.except_id_t, ptr %81, i32 0, i32 1
  %83 = load volatile i64, ptr %82, align 8
  %84 = icmp eq i64 %83, 4
  br i1 %84, label %103, label %85

85:                                               ; preds = %79
  %86 = load volatile ptr, ptr %15, align 8
  %87 = getelementptr inbounds nuw %struct.except_t, ptr %86, i32 0, i32 0
  %88 = getelementptr inbounds nuw %struct.except_id_t, ptr %87, i32 0, i32 1
  %89 = load volatile i64, ptr %88, align 8
  %90 = icmp eq i64 %89, 3
  br i1 %90, label %103, label %91

91:                                               ; preds = %85
  %92 = load volatile ptr, ptr %15, align 8
  %93 = getelementptr inbounds nuw %struct.except_t, ptr %92, i32 0, i32 0
  %94 = getelementptr inbounds nuw %struct.except_id_t, ptr %93, i32 0, i32 1
  %95 = load volatile i64, ptr %94, align 8
  %96 = icmp eq i64 %95, 2
  br i1 %96, label %103, label %97

97:                                               ; preds = %91
  %98 = load volatile ptr, ptr %15, align 8
  %99 = getelementptr inbounds nuw %struct.except_t, ptr %98, i32 0, i32 0
  %100 = getelementptr inbounds nuw %struct.except_id_t, ptr %99, i32 0, i32 1
  %101 = load volatile i64, ptr %100, align 8
  %102 = icmp eq i64 %101, 7
  br i1 %102, label %103, label %120

103:                                              ; preds = %97, %91, %85, %79, %73
  %104 = load volatile i32, ptr %16, align 4
  %105 = or i32 %104, 1
  store volatile i32 %105, ptr %16, align 4
  %106 = icmp ne i32 %105, 0
  br i1 %106, label %107, label %120

107:                                              ; preds = %103
  %108 = load ptr, ptr %12, align 8
  %109 = load ptr, ptr %9, align 8
  %110 = getelementptr inbounds nuw %struct._asn1_ctx_t, ptr %109, i32 0, i32 3
  %111 = load ptr, ptr %110, align 8
  %112 = load ptr, ptr %13, align 8
  %113 = load volatile ptr, ptr %15, align 8
  %114 = getelementptr inbounds nuw %struct.except_t, ptr %113, i32 0, i32 0
  %115 = getelementptr inbounds nuw %struct.except_id_t, ptr %114, i32 0, i32 1
  %116 = load volatile i64, ptr %115, align 8
  %117 = load volatile ptr, ptr %15, align 8
  %118 = getelementptr inbounds nuw %struct.except_t, ptr %117, i32 0, i32 1
  %119 = load volatile ptr, ptr %118, align 8
  call void @show_exception(ptr noundef %108, ptr noundef %111, ptr noundef %112, i64 noundef %116, ptr noundef %119)
  br label %120

120:                                              ; preds = %107, %103, %97, %70, %67
  %121 = load volatile i32, ptr %16, align 4
  %122 = and i32 %121, 1
  %123 = icmp ne i32 %122, 0
  br i1 %123, label %129, label %124

124:                                              ; preds = %120
  %125 = load volatile ptr, ptr %15, align 8
  %126 = icmp ne ptr %125, null
  br i1 %126, label %127, label %129

127:                                              ; preds = %124
  %128 = load volatile ptr, ptr %15, align 8
  call void @except_rethrow(ptr noundef %128) #10
  unreachable

129:                                              ; preds = %124, %120
  %130 = getelementptr inbounds nuw %struct.except_catch, ptr %18, i32 0, i32 2
  %131 = getelementptr inbounds nuw %struct.except_t, ptr %130, i32 0, i32 2
  %132 = load volatile ptr, ptr %131, align 8
  call void @except_free(ptr noundef %132)
  %133 = call ptr @except_pop()
  call void @llvm.lifetime.end.p0(i64 248, ptr %18) #8
  call void @llvm.lifetime.end.p0(i64 24, ptr %17) #8
  call void @llvm.lifetime.end.p0(i64 4, ptr %16) #8
  call void @llvm.lifetime.end.p0(i64 8, ptr %15) #8
  br label %134

134:                                              ; preds = %129, %29
  %135 = load i32, ptr %8, align 4
  store i32 %135, ptr %6, align 4
  store i32 1, ptr %14, align 4
  br label %136

136:                                              ; preds = %134, %27
  call void @llvm.lifetime.end.p0(i64 8, ptr %13) #8
  call void @llvm.lifetime.end.p0(i64 8, ptr %12) #8
  %137 = load i32, ptr %6, align 4
  ret i32 %137
}