; Function Attrs: null_pointer_is_valid sspstrong uwtable
define internal fastcc i32 @dissect_s1ap_UE_HistoryInformationFromTheUE(ptr noundef %0, ptr noundef %1, ptr noundef %2, i32 noundef %3) unnamed_addr #0 {
  %5 = alloca ptr, align 8
  %6 = alloca ptr, align 8
  %7 = alloca i32, align 4
  %8 = alloca %struct.except_stacknode, align 8
  %9 = alloca %struct.except_catch, align 8
  call void @llvm.lifetime.start.p0(i64 8, ptr nonnull %5) #8
  %10 = call i32 @dissect_per_octet_string(ptr noundef %0, i32 noundef 0, ptr noundef %1, ptr noundef %2, i32 noundef %3, i32 noundef -1, i32 noundef -1, i1 noundef zeroext false, ptr noundef nonnull %5)
  %11 = load ptr, ptr %5, align 8
  %.not = icmp eq ptr %11, null
  br i1 %.not, label %76, label %12

12:                                               ; preds = %4
  %13 = load i8, ptr @g_s1ap_dissect_container, align 1, !range !8, !noundef !9
  %14 = trunc nuw i8 %13 to i1
  br i1 %14, label %15, label %76

15:                                               ; preds = %12
  %16 = getelementptr inbounds nuw i8, ptr %1, i64 24
  %17 = load ptr, ptr %16, align 8
  %18 = load i32, ptr @ett_s1ap_UE_HistoryInformationFromTheUE, align 4
  %19 = call ptr @proto_item_add_subtree(ptr noundef %17, i32 noundef %18)
  call void @llvm.lifetime.start.p0(i64 8, ptr nonnull %6)
  call void @llvm.lifetime.start.p0(i64 4, ptr nonnull %7)
  store volatile i32 0, ptr %7, align 4
  call void @llvm.lifetime.start.p0(i64 24, ptr nonnull %8) #8
  call void @llvm.lifetime.start.p0(i64 248, ptr nonnull %9) #8
  call void @except_setup_try(ptr noundef nonnull %8, ptr noundef nonnull %9, ptr noundef nonnull @dissect_s1ap_UE_HistoryInformationFromTheUE.catch_spec, i64 noundef 1)
  %20 = getelementptr inbounds nuw i8, ptr %9, i64 48
  %21 = call i32 @_setjmp(ptr noundef nonnull %20) #10
  %.not30 = icmp eq i32 %21, 0
  %22 = getelementptr inbounds nuw i8, ptr %9, i64 16
  %.sink = select i1 %.not30, ptr null, ptr %22
  store volatile ptr %.sink, ptr %6, align 8
  %.0..0..0..0. = load volatile i32, ptr %7, align 4
  %23 = and i32 %.0..0..0..0., 1
  %.not31 = icmp eq i32 %23, 0
  br i1 %.not31, label %26, label %24

24:                                               ; preds = %15
  %.0..0..0..0.1 = load volatile i32, ptr %7, align 4
  %25 = or i32 %.0..0..0..0.1, 2
  store volatile i32 %25, ptr %7, align 4
  br label %26

26:                                               ; preds = %24, %15
  %.0..0..0..0.2 = load volatile i32, ptr %7, align 4
  %27 = and i32 %.0..0..0..0.2, -2
  store volatile i32 %27, ptr %7, align 4
  %.0..0..0..0.3 = load volatile i32, ptr %7, align 4
  %28 = icmp eq i32 %.0..0..0..0.3, 0
  br i1 %28, label %29, label %36

29:                                               ; preds = %26
  %.0..0..0..0.7 = load volatile ptr, ptr %6, align 8
  %30 = icmp eq ptr %.0..0..0..0.7, null
  br i1 %30, label %31, label %36

31:                                               ; preds = %29
  %32 = load ptr, ptr %5, align 8
  %33 = getelementptr inbounds nuw i8, ptr %1, i64 16
  %34 = load ptr, ptr %33, align 8
  %35 = call i32 @dissect_lte_rrc_VisitedCellInfoList_r12_PDU(ptr noundef %32, ptr noundef %34, ptr noundef %19, ptr noundef null)
  br label %36

36:                                               ; preds = %31, %29, %26
  %.0..0..0..0.4 = load volatile i32, ptr %7, align 4
  %37 = icmp eq i32 %.0..0..0..0.4, 0
  br i1 %37, label %38, label %68

38:                                               ; preds = %36
  %.0..0..0..0.8 = load volatile ptr, ptr %6, align 8
  %.not32 = icmp eq ptr %.0..0..0..0.8, null
  br i1 %.not32, label %68, label %39

39:                                               ; preds = %38
  %.0..0..0..0.9 = load volatile ptr, ptr %6, align 8
  %40 = getelementptr inbounds nuw i8, ptr %.0..0..0..0.9, i64 8
  %41 = load volatile i64, ptr %40, align 8
  %42 = icmp eq i64 %41, 1
  br i1 %42, label %59, label %43

43:                                               ; preds = %39
  %.0..0..0..0.10 = load volatile ptr, ptr %6, align 8
  %44 = getelementptr inbounds nuw i8, ptr %.0..0..0..0.10, i64 8
  %45 = load volatile i64, ptr %44, align 8
  %46 = icmp eq i64 %45, 4
  br i1 %46, label %59, label %47

47:                                               ; preds = %43
  %.0..0..0..0.11 = load volatile ptr, ptr %6, align 8
  %48 = getelementptr inbounds nuw i8, ptr %.0..0..0..0.11, i64 8
  %49 = load volatile i64, ptr %48, align 8
  %50 = icmp eq i64 %49, 3
  br i1 %50, label %59, label %51

51:                                               ; preds = %47
  %.0..0..0..0.12 = load volatile ptr, ptr %6, align 8
  %52 = getelementptr inbounds nuw i8, ptr %.0..0..0..0.12, i64 8
  %53 = load volatile i64, ptr %52, align 8
  %54 = icmp eq i64 %53, 2
  br i1 %54, label %59, label %55

55:                                               ; preds = %51
  %.0..0..0..0.13 = load volatile ptr, ptr %6, align 8
  %56 = getelementptr inbounds nuw i8, ptr %.0..0..0..0.13, i64 8
  %57 = load volatile i64, ptr %56, align 8
  %58 = icmp eq i64 %57, 7
  br i1 %58, label %59, label %68

59:                                               ; preds = %55, %51, %47, %43, %39
  %.0..0..0..0.5 = load volatile i32, ptr %7, align 4
  %60 = or i32 %.0..0..0..0.5, 1
  store volatile i32 %60, ptr %7, align 4
  %61 = load ptr, ptr %5, align 8
  %62 = getelementptr inbounds nuw i8, ptr %1, i64 16
  %63 = load ptr, ptr %62, align 8
  %.0..0..0..0.14 = load volatile ptr, ptr %6, align 8
  %64 = getelementptr inbounds nuw i8, ptr %.0..0..0..0.14, i64 8
  %65 = load volatile i64, ptr %64, align 8
  %.0..0..0..0.15 = load volatile ptr, ptr %6, align 8
  %66 = getelementptr inbounds nuw i8, ptr %.0..0..0..0.15, i64 16
  %67 = load volatile ptr, ptr %66, align 8
  call void @show_exception(ptr noundef %61, ptr noundef %63, ptr noundef %19, i64 noundef %65, ptr noundef %67)
  br label %68

68:                                               ; preds = %59, %55, %38, %36
  %.0..0..0..0.6 = load volatile i32, ptr %7, align 4
  %69 = and i32 %.0..0..0..0.6, 1
  %.not33 = icmp eq i32 %69, 0
  br i1 %.not33, label %70, label %72

70:                                               ; preds = %68
  %.0..0..0..0.16 = load volatile ptr, ptr %6, align 8
  %.not34 = icmp eq ptr %.0..0..0..0.16, null
  br i1 %.not34, label %72, label %71

71:                                               ; preds = %70
  %.0..0..0..0.17 = load volatile ptr, ptr %6, align 8
  call void @except_rethrow(ptr noundef %.0..0..0..0.17) #11
  unreachable

72:                                               ; preds = %70, %68
  %73 = getelementptr inbounds nuw i8, ptr %9, i64 40
  %74 = load volatile ptr, ptr %73, align 8
  call void @except_free(ptr noundef %74)
  %75 = call ptr @except_pop()
  call void @llvm.lifetime.end.p0(i64 248, ptr nonnull %9) #8
  call void @llvm.lifetime.end.p0(i64 24, ptr nonnull %8) #8
  call void @llvm.lifetime.end.p0(i64 4, ptr nonnull %7)
  call void @llvm.lifetime.end.p0(i64 8, ptr nonnull %6)
  br label %76

76:                                               ; preds = %12, %72, %4
  call void @llvm.lifetime.end.p0(i64 8, ptr nonnull %5) #8
  ret i32 %10
}